target datalayout = "e-m:e-p270:32:32-p271:32:32-p272:64:64-i64:64-i128:128-f80:128-n8:16:32:64-S128"
target triple = "x86_64-pc-linux-gnu"

%struct.poly_st = type { [256 x i32] }

; Function Attrs: inlinehint nounwind uwtable
define internal i32 @value_barrier_32(i32 noundef %0) #3 {
  %2 = alloca i32, align 4
  %3 = alloca i32, align 4
  store i32 %0, ptr %2, align 4, !tbaa !8
  call void @llvm.lifetime.start.p0(i64 4, ptr %3) #7
  %4 = load i32, ptr %2, align 4, !tbaa !8
  %5 = call i32 asm "", "=r,0,~{dirflag},~{fpsr},~{flags}"(i32 %4) #9, !srcloc !99
  store i32 %5, ptr %3, align 4, !tbaa !8
  %6 = load i32, ptr %3, align 4, !tbaa !8
  call void @llvm.lifetime.end.p0(i64 4, ptr %3) #7
  ret i32 %6
}

; Function Attrs: inlinehint nounwind uwtable
define internal i32 @constant_time_msb_32(i32 noundef %0) #3 {
  %2 = alloca i32, align 4
  store i32 %0, ptr %2, align 4, !tbaa !8
  %3 = load i32, ptr %2, align 4, !tbaa !8
  %4 = lshr i32 %3, 31
  %5 = sub i32 0, %4
  ret i32 %5
}

; Function Attrs: inlinehint nounwind uwtable
define internal i32 @constant_time_select_32(i32 noundef %0, i32 noundef %1, i32 noundef %2) #3 {
  %4 = alloca i32, align 4
  %5 = alloca i32, align 4
  %6 = alloca i32, align 4
  store i32 %0, ptr %4, align 4, !tbaa !8
  store i32 %1, ptr %5, align 4, !tbaa !8
  store i32 %2, ptr %6, align 4, !tbaa !8
  %7 = load i32, ptr %4, align 4, !tbaa !8
  %8 = call i32 @value_barrier_32(i32 noundef %7)
  %9 = load i32, ptr %5, align 4, !tbaa !8
  %10 = and i32 %8, %9
  %11 = load i32, ptr %4, align 4, !tbaa !8
  %12 = xor i32 %11, -1
  %13 = call i32 @value_barrier_32(i32 noundef %12)
  %14 = load i32, ptr %6, align 4, !tbaa !8
  %15 = and i32 %13, %14
  %16 = or i32 %10, %15
  ret i32 %16
}

; Function Attrs: inlinehint nounwind uwtable
define internal i32 @constant_time_lt_32(i32 noundef %0, i32 noundef %1) #3 {
  %3 = alloca i32, align 4
  %4 = alloca i32, align 4
  store i32 %0, ptr %3, align 4, !tbaa !8
  store i32 %1, ptr %4, align 4, !tbaa !8
  %5 = load i32, ptr %3, align 4, !tbaa !8
  %6 = load i32, ptr %3, align 4, !tbaa !8
  %7 = load i32, ptr %4, align 4, !tbaa !8
  %8 = xor i32 %6, %7
  %9 = load i32, ptr %3, align 4, !tbaa !8
  %10 = load i32, ptr %4, align 4, !tbaa !8
  %11 = sub i32 %9, %10
  %12 = load i32, ptr %4, align 4, !tbaa !8
  %13 = xor i32 %11, %12
  %14 = or i32 %8, %13
  %15 = xor i32 %5, %14
  %16 = call i32 @constant_time_msb_32(i32 noundef %15)
  ret i32 %16
}

; Function Attrs: inlinehint nounwind uwtable
define internal i32 @reduce_once(i32 noundef %0) #3 {
  %2 = alloca i32, align 4
  store i32 %0, ptr %2, align 4, !tbaa !8
  %3 = load i32, ptr %2, align 4, !tbaa !8
  %4 = call i32 @constant_time_lt_32(i32 noundef %3, i32 noundef 8380417)
  %5 = load i32, ptr %2, align 4, !tbaa !8
  %6 = load i32, ptr %2, align 4, !tbaa !8
  %7 = sub i32 %6, 8380417
  %8 = call i32 @constant_time_select_32(i32 noundef %4, i32 noundef %5, i32 noundef %7)
  ret i32 %8
}

; Function Attrs: inlinehint nounwind uwtable
define internal i32 @mod_sub(i32 noundef %0, i32 noundef %1) #3 {
  %3 = alloca i32, align 4
  %4 = alloca i32, align 4
  store i32 %0, ptr %3, align 4, !tbaa !8
  store i32 %1, ptr %4, align 4, !tbaa !8
  %5 = load i32, ptr %3, align 4, !tbaa !8
  %6 = add i32 8380417, %5
  %7 = load i32, ptr %4, align 4, !tbaa !8
  %8 = sub i32 %6, %7
  %9 = call i32 @reduce_once(i32 noundef %8)
  ret i32 %9
}

; Function Attrs: nounwind uwtable
define internal i32 @poly_encode_signed_4(ptr noundef %0, ptr noundef %1) #0 {
  %3 = alloca i32, align 4
  %4 = alloca ptr, align 8
  %5 = alloca ptr, align 8
  %6 = alloca ptr, align 8
  %7 = alloca ptr, align 8
  %8 = alloca ptr, align 8
  %9 = alloca i32, align 4
  %10 = alloca i32, align 4
  store ptr %0, ptr %4, align 8, !tbaa !20
  store ptr %1, ptr %5, align 8, !tbaa !29
  call void @llvm.lifetime.start.p0(i64 8, ptr %6) #7
  call void @llvm.lifetime.start.p0(i64 8, ptr %7) #7
  %11 = load ptr, ptr %4, align 8, !tbaa !20
  %12 = getelementptr inbounds nuw %struct.poly_st, ptr %11, i32 0, i32 0
  %13 = getelementptr inbounds [256 x i32], ptr %12, i64 0, i64 0
  store ptr %13, ptr %7, align 8, !tbaa !31
  call void @llvm.lifetime.start.p0(i64 8, ptr %8) #7
  %14 = load ptr, ptr %7, align 8, !tbaa !31
  %15 = getelementptr inbounds i32, ptr %14, i64 256
  store ptr %15, ptr %8, align 8, !tbaa !31
  %16 = load ptr, ptr %5, align 8, !tbaa !29
  %17 = call i32 @WPACKET_allocate_bytes(ptr noundef %16, i64 noundef 128, ptr noundef %6)
  %18 = icmp ne i32 %17, 0
  br i1 %18, label %20, label %19

19:                                               ; preds = %2
  store i32 0, ptr %3, align 4
  store i32 1, ptr %9, align 4
  br label %41

20:                                               ; preds = %2
  br label %21

21:                                               ; preds = %36, %20
  call void @llvm.lifetime.start.p0(i64 4, ptr %10) #7
  %22 = load ptr, ptr %7, align 8, !tbaa !31
  %23 = getelementptr inbounds nuw i32, ptr %22, i32 1
  store ptr %23, ptr %7, align 8, !tbaa !31
  %24 = load i32, ptr %22, align 4, !tbaa !8
  %25 = call i32 @mod_sub(i32 noundef 4, i32 noundef %24)
  store i32 %25, ptr %10, align 4, !tbaa !8
  %26 = load i32, ptr %10, align 4, !tbaa !8
  %27 = load ptr, ptr %7, align 8, !tbaa !31
  %28 = getelementptr inbounds nuw i32, ptr %27, i32 1
  store ptr %28, ptr %7, align 8, !tbaa !31
  %29 = load i32, ptr %27, align 4, !tbaa !8
  %30 = call i32 @mod_sub(i32 noundef 4, i32 noundef %29)
  %31 = shl i32 %30, 4
  %32 = or i32 %26, %31
  %33 = trunc i32 %32 to i8
  %34 = load ptr, ptr %6, align 8, !tbaa !25
  %35 = getelementptr inbounds nuw i8, ptr %34, i32 1
  store ptr %35, ptr %6, align 8, !tbaa !25
  store i8 %33, ptr %34, align 1, !tbaa !33
  call void @llvm.lifetime.end.p0(i64 4, ptr %10) #7
  br label %36

36:                                               ; preds = %21
  %37 = load ptr, ptr %7, align 8, !tbaa !31
  %38 = load ptr, ptr %8, align 8, !tbaa !31
  %39 = icmp ult ptr %37, %38
  br i1 %39, label %21, label %40, !llvm.loop !57

40:                                               ; preds = %36
  store i32 1, ptr %3, align 4
  store i32 1, ptr %9, align 4
  br label %41

41:                                               ; preds = %40, %19
  call void @llvm.lifetime.end.p0(i64 8, ptr %8) #7
  call void @llvm.lifetime.end.p0(i64 8, ptr %7) #7
  call void @llvm.lifetime.end.p0(i64 8, ptr %6) #7
  %42 = load i32, ptr %3, align 4
  ret i32 %42
}