; Function Attrs: nounwind uwtable
define internal range(i32 0, 2) i32 @poly_encode_signed_4(ptr noundef readonly captures(none) %0, ptr noundef %1) unnamed_addr #0 {
  %3 = alloca ptr, align 8
  call void @llvm.lifetime.start.p0(i64 8, ptr nonnull %3) #9
  %4 = call i32 @WPACKET_allocate_bytes(ptr noundef %1, i64 noundef 128, ptr noundef nonnull %3) #9
  %.not = icmp eq i32 %4, 0
  br i1 %.not, label %.loopexit, label %.preheader

.preheader:                                       ; preds = %2, %.preheader
  %.08.idx = phi i64 [ %.08.add, %.preheader ], [ 0, %2 ]
  %.08.ptr = getelementptr inbounds nuw i8, ptr %0, i64 %.08.idx
  %5 = getelementptr inbounds nuw i8, ptr %.08.ptr, i64 4
  %6 = load i32, ptr %.08.ptr, align 4, !tbaa !21
  %7 = sub i32 5, %6
  %8 = sub i32 4, %6
  %9 = add i32 %6, -8380422
  %10 = and i32 %8, %9
  %.neg.i.i.i.i = ashr i32 %10, 31
  %11 = call i32 asm "", "=r,0,~{dirflag},~{fpsr},~{flags}"(i32 range(i32 -1, 1) %.neg.i.i.i.i) #10, !srcloc !42
  %12 = and i32 %11, %7
  %13 = xor i32 %.neg.i.i.i.i, -1
  %14 = call i32 asm "", "=r,0,~{dirflag},~{fpsr},~{flags}"(i32 range(i32 -1, 2) %13) #10, !srcloc !42
  %15 = and i32 %14, %8
  %16 = or i32 %15, %12
  %.08.add = add nuw nsw i64 %.08.idx, 8
  %17 = load i32, ptr %5, align 4, !tbaa !21
  %18 = sub i32 5, %17
  %19 = sub i32 4, %17
  %20 = add i32 %17, -8380422
  %21 = and i32 %19, %20
  %.neg.i.i.i.i9 = ashr i32 %21, 31
  %22 = call i32 asm "", "=r,0,~{dirflag},~{fpsr},~{flags}"(i32 range(i32 -1, 1) %.neg.i.i.i.i9) #10, !srcloc !42
  %23 = and i32 %22, %18
  %24 = xor i32 %.neg.i.i.i.i9, -1
  %25 = call i32 asm "", "=r,0,~{dirflag},~{fpsr},~{flags}"(i32 range(i32 -1, 2) %24) #10, !srcloc !42
  %26 = and i32 %25, %19
  %27 = or i32 %26, %23
  %28 = shl i32 %27, 4
  %29 = or i32 %16, %28
  %30 = trunc i32 %29 to i8
  %31 = load ptr, ptr %3, align 8, !tbaa !22
  %32 = getelementptr inbounds nuw i8, ptr %31, i64 1
  store ptr %32, ptr %3, align 8, !tbaa !22
  store i8 %30, ptr %31, align 1, !tbaa !23
  %33 = icmp samesign ult i64 %.08.idx, 1016
  br i1 %33, label %.preheader, label %.loopexit, !llvm.loop !45

.loopexit:                                        ; preds = %.preheader, %2
  %.0 = phi i32 [ 0, %2 ], [ 1, %.preheader ]
  call void @llvm.lifetime.end.p0(i64 8, ptr nonnull %3) #9
  ret i32 %.0
}